target datalayout = "e-m:e-p270:32:32-p271:32:32-p272:64:64-i64:64-i128:128-f80:128-n8:16:32:64-S128"
target triple = "x86_64-pc-linux-gnu"

%struct.AVIOContext = type { ptr, ptr, i32, ptr, ptr, ptr, ptr, ptr, ptr, i64, i32, i32, i32, i32, i32, i64, ptr, ptr, ptr, ptr, i32, i32, ptr, ptr, ptr, i32, ptr, i64, i64 }
%struct.URLContext = type { ptr, ptr, ptr, ptr, i32, i32, i32, i32, %struct.AVIOInterruptCB, i64, ptr, ptr, i32 }
%struct.AVIOInterruptCB = type { ptr, ptr }
%struct.URLProtocol = type { ptr, ptr, ptr, ptr, ptr, ptr, ptr, ptr, ptr, ptr, ptr, ptr, ptr, ptr, ptr, ptr, i32, i32, ptr, ptr, ptr, ptr, ptr, ptr, ptr }
%struct.FFIOContext = type { %struct.AVIOContext, ptr, i32, i32, i64, i64, i64, i64, i32, i32, i32, i64 }

; Function Attrs: nounwind uwtable
define i32 @avio_closep(ptr noundef %0) #1 {
  %2 = alloca ptr, align 8
  %3 = alloca i32, align 4
  store ptr %0, ptr %2, align 8, !tbaa !51
  call void @llvm.lifetime.start.p0(i64 4, ptr %3) #10
  %4 = load ptr, ptr %2, align 8, !tbaa !51
  %5 = load ptr, ptr %4, align 8, !tbaa !8
  %6 = call i32 @avio_close(ptr noundef %5)
  store i32 %6, ptr %3, align 4, !tbaa !21
  %7 = load ptr, ptr %2, align 8, !tbaa !51
  store ptr null, ptr %7, align 8, !tbaa !8
  %8 = load i32, ptr %3, align 4, !tbaa !21
  call void @llvm.lifetime.end.p0(i64 4, ptr %3) #10
  ret i32 %8
}

; Function Attrs: nounwind uwtable
define i32 @ffio_fdopen(ptr noundef %0, ptr noundef %1) #1 {
  %3 = alloca i32, align 4
  %4 = alloca ptr, align 8
  %5 = alloca ptr, align 8
  %6 = alloca ptr, align 8
  %7 = alloca ptr, align 8
  %8 = alloca i32, align 4
  %9 = alloca i32, align 4
  %10 = alloca i32, align 4
  store ptr %0, ptr %4, align 8, !tbaa !51
  store ptr %1, ptr %5, align 8, !tbaa !22
  call void @llvm.lifetime.start.p0(i64 8, ptr %6) #10
  call void @llvm.lifetime.start.p0(i64 8, ptr %7) #10
  store ptr null, ptr %7, align 8, !tbaa !20
  call void @llvm.lifetime.start.p0(i64 4, ptr %8) #10
  call void @llvm.lifetime.start.p0(i64 4, ptr %9) #10
  %11 = load ptr, ptr %5, align 8, !tbaa !22
  %12 = getelementptr inbounds nuw %struct.URLContext, ptr %11, i32 0, i32 5
  %13 = load i32, ptr %12, align 4, !tbaa !53
  store i32 %13, ptr %9, align 4, !tbaa !21
  %14 = load i32, ptr %9, align 4, !tbaa !21
  %15 = icmp ne i32 %14, 0
  br i1 %15, label %16, label %18

16:                                               ; preds = %2
  %17 = load i32, ptr %9, align 4, !tbaa !21
  store i32 %17, ptr %8, align 4, !tbaa !21
  br label %19

18:                                               ; preds = %2
  store i32 32768, ptr %8, align 4, !tbaa !21
  br label %19

19:                                               ; preds = %18, %16
  %20 = load ptr, ptr %5, align 8, !tbaa !22
  %21 = getelementptr inbounds nuw %struct.URLContext, ptr %20, i32 0, i32 4
  %22 = load i32, ptr %21, align 8, !tbaa !24
  %23 = and i32 %22, 2
  %24 = icmp ne i32 %23, 0
  br i1 %24, label %37, label %25

25:                                               ; preds = %19
  %26 = load ptr, ptr %5, align 8, !tbaa !22
  %27 = getelementptr inbounds nuw %struct.URLContext, ptr %26, i32 0, i32 6
  %28 = load i32, ptr %27, align 8, !tbaa !46
  %29 = icmp ne i32 %28, 0
  br i1 %29, label %30, label %37

30:                                               ; preds = %25
  %31 = load i32, ptr %8, align 4, !tbaa !21
  %32 = icmp sgt i32 %31, 1073741823
  br i1 %32, label %33, label %34

33:                                               ; preds = %30
  store i32 -22, ptr %3, align 4
  store i32 1, ptr %10, align 4
  br label %158

34:                                               ; preds = %30
  %35 = load i32, ptr %8, align 4, !tbaa !21
  %36 = mul nsw i32 %35, 2
  store i32 %36, ptr %8, align 4, !tbaa !21
  br label %37

37:                                               ; preds = %34, %25, %19
  %38 = load i32, ptr %8, align 4, !tbaa !21
  %39 = sext i32 %38 to i64
  %40 = call noalias ptr @av_malloc(i64 noundef %39)
  store ptr %40, ptr %7, align 8, !tbaa !20
  %41 = load ptr, ptr %7, align 8, !tbaa !20
  %42 = icmp ne ptr %41, null
  br i1 %42, label %44, label %43

43:                                               ; preds = %37
  store i32 -12, ptr %3, align 4
  store i32 1, ptr %10, align 4
  br label %158

44:                                               ; preds = %37
  %45 = load ptr, ptr %7, align 8, !tbaa !20
  %46 = load i32, ptr %8, align 4, !tbaa !21
  %47 = load ptr, ptr %5, align 8, !tbaa !22
  %48 = getelementptr inbounds nuw %struct.URLContext, ptr %47, i32 0, i32 4
  %49 = load i32, ptr %48, align 8, !tbaa !24
  %50 = and i32 %49, 2
  %51 = load ptr, ptr %5, align 8, !tbaa !22
  %52 = call ptr @avio_alloc_context(ptr noundef %45, i32 noundef %46, i32 noundef %50, ptr noundef %51, ptr noundef @ffurl_read2, ptr noundef @ffurl_write2, ptr noundef @ffurl_seek2)
  %53 = load ptr, ptr %4, align 8, !tbaa !51
  store ptr %52, ptr %53, align 8, !tbaa !8
  %54 = load ptr, ptr %4, align 8, !tbaa !51
  %55 = load ptr, ptr %54, align 8, !tbaa !8
  %56 = icmp ne ptr %55, null
  br i1 %56, label %58, label %57

57:                                               ; preds = %44
  call void @av_freep(ptr noundef %7)
  store i32 -12, ptr %3, align 4
  store i32 1, ptr %10, align 4
  br label %158

58:                                               ; preds = %44
  %59 = load ptr, ptr %4, align 8, !tbaa !51
  %60 = load ptr, ptr %59, align 8, !tbaa !8
  store ptr %60, ptr %6, align 8, !tbaa !8
  %61 = load ptr, ptr %5, align 8, !tbaa !22
  %62 = getelementptr inbounds nuw %struct.URLContext, ptr %61, i32 0, i32 10
  %63 = load ptr, ptr %62, align 8, !tbaa !34
  %64 = icmp ne ptr %63, null
  br i1 %64, label %65, label %80

65:                                               ; preds = %58
  %66 = load ptr, ptr %5, align 8, !tbaa !22
  %67 = getelementptr inbounds nuw %struct.URLContext, ptr %66, i32 0, i32 10
  %68 = load ptr, ptr %67, align 8, !tbaa !34
  %69 = call noalias ptr @av_strdup(ptr noundef %68)
  %70 = load ptr, ptr %6, align 8, !tbaa !8
  %71 = getelementptr inbounds nuw %struct.AVIOContext, ptr %70, i32 0, i32 22
  store ptr %69, ptr %71, align 8, !tbaa !54
  %72 = load ptr, ptr %6, align 8, !tbaa !8
  %73 = getelementptr inbounds nuw %struct.AVIOContext, ptr %72, i32 0, i32 22
  %74 = load ptr, ptr %73, align 8, !tbaa !54
  %75 = icmp ne ptr %74, null
  br i1 %75, label %79, label %76

76:                                               ; preds = %65
  %77 = load ptr, ptr %4, align 8, !tbaa !51
  %78 = call i32 @avio_closep(ptr noundef %77)
  store i32 -12, ptr %3, align 4
  store i32 1, ptr %10, align 4
  br label %158

79:                                               ; preds = %65
  br label %80

80:                                               ; preds = %79, %58
  %81 = load ptr, ptr %5, align 8, !tbaa !22
  %82 = getelementptr inbounds nuw %struct.URLContext, ptr %81, i32 0, i32 11
  %83 = load ptr, ptr %82, align 8, !tbaa !37
  %84 = icmp ne ptr %83, null
  br i1 %84, label %85, label %100

85:                                               ; preds = %80
  %86 = load ptr, ptr %5, align 8, !tbaa !22
  %87 = getelementptr inbounds nuw %struct.URLContext, ptr %86, i32 0, i32 11
  %88 = load ptr, ptr %87, align 8, !tbaa !37
  %89 = call noalias ptr @av_strdup(ptr noundef %88)
  %90 = load ptr, ptr %6, align 8, !tbaa !8
  %91 = getelementptr inbounds nuw %struct.AVIOContext, ptr %90, i32 0, i32 23
  store ptr %89, ptr %91, align 8, !tbaa !55
  %92 = load ptr, ptr %6, align 8, !tbaa !8
  %93 = getelementptr inbounds nuw %struct.AVIOContext, ptr %92, i32 0, i32 23
  %94 = load ptr, ptr %93, align 8, !tbaa !55
  %95 = icmp ne ptr %94, null
  br i1 %95, label %99, label %96

96:                                               ; preds = %85
  %97 = load ptr, ptr %4, align 8, !tbaa !51
  %98 = call i32 @avio_closep(ptr noundef %97)
  store i32 -12, ptr %3, align 4
  store i32 1, ptr %10, align 4
  br label %158

99:                                               ; preds = %85
  br label %100

100:                                              ; preds = %99, %80
  %101 = load ptr, ptr %5, align 8, !tbaa !22
  %102 = getelementptr inbounds nuw %struct.URLContext, ptr %101, i32 0, i32 4
  %103 = load i32, ptr %102, align 8, !tbaa !24
  %104 = and i32 %103, 32768
  %105 = load ptr, ptr %6, align 8, !tbaa !8
  %106 = getelementptr inbounds nuw %struct.AVIOContext, ptr %105, i32 0, i32 21
  store i32 %104, ptr %106, align 4, !tbaa !56
  %107 = load ptr, ptr %5, align 8, !tbaa !22
  %108 = getelementptr inbounds nuw %struct.URLContext, ptr %107, i32 0, i32 6
  %109 = load i32, ptr %108, align 8, !tbaa !46
  %110 = icmp ne i32 %109, 0
  %111 = select i1 %110, i32 0, i32 1
  %112 = load ptr, ptr %6, align 8, !tbaa !8
  %113 = getelementptr inbounds nuw %struct.AVIOContext, ptr %112, i32 0, i32 20
  store i32 %111, ptr %113, align 8, !tbaa !57
  %114 = load i32, ptr %9, align 4, !tbaa !21
  %115 = load ptr, ptr %6, align 8, !tbaa !8
  %116 = getelementptr inbounds nuw %struct.AVIOContext, ptr %115, i32 0, i32 13
  store i32 %114, ptr %116, align 4, !tbaa !58
  %117 = load ptr, ptr %5, align 8, !tbaa !22
  %118 = getelementptr inbounds nuw %struct.URLContext, ptr %117, i32 0, i32 12
  %119 = load i32, ptr %118, align 8, !tbaa !59
  %120 = load ptr, ptr %6, align 8, !tbaa !8
  %121 = getelementptr inbounds nuw %struct.AVIOContext, ptr %120, i32 0, i32 14
  store i32 %119, ptr %121, align 8, !tbaa !60
  %122 = load ptr, ptr %5, align 8, !tbaa !22
  %123 = getelementptr inbounds nuw %struct.URLContext, ptr %122, i32 0, i32 1
  %124 = load ptr, ptr %123, align 8, !tbaa !38
  %125 = icmp ne ptr %124, null
  br i1 %125, label %126, label %153

126:                                              ; preds = %100
  %127 = load ptr, ptr %5, align 8, !tbaa !22
  %128 = getelementptr inbounds nuw %struct.URLContext, ptr %127, i32 0, i32 1
  %129 = load ptr, ptr %128, align 8, !tbaa !38
  %130 = getelementptr inbounds nuw %struct.URLProtocol, ptr %129, i32 0, i32 9
  %131 = load ptr, ptr %130, align 8, !tbaa !61
  %132 = load ptr, ptr %6, align 8, !tbaa !8
  %133 = getelementptr inbounds nuw %struct.AVIOContext, ptr %132, i32 0, i32 18
  store ptr %131, ptr %133, align 8, !tbaa !62
  %134 = load ptr, ptr %5, align 8, !tbaa !22
  %135 = getelementptr inbounds nuw %struct.URLContext, ptr %134, i32 0, i32 1
  %136 = load ptr, ptr %135, align 8, !tbaa !38
  %137 = getelementptr inbounds nuw %struct.URLProtocol, ptr %136, i32 0, i32 10
  %138 = load ptr, ptr %137, align 8, !tbaa !63
  %139 = load ptr, ptr %6, align 8, !tbaa !8
  %140 = getelementptr inbounds nuw %struct.AVIOContext, ptr %139, i32 0, i32 19
  store ptr %138, ptr %140, align 8, !tbaa !64
  %141 = load ptr, ptr %5, align 8, !tbaa !22
  %142 = getelementptr inbounds nuw %struct.URLContext, ptr %141, i32 0, i32 1
  %143 = load ptr, ptr %142, align 8, !tbaa !38
  %144 = getelementptr inbounds nuw %struct.URLProtocol, ptr %143, i32 0, i32 10
  %145 = load ptr, ptr %144, align 8, !tbaa !63
  %146 = icmp ne ptr %145, null
  br i1 %146, label %147, label %152

147:                                              ; preds = %126
  %148 = load ptr, ptr %6, align 8, !tbaa !8
  %149 = getelementptr inbounds nuw %struct.AVIOContext, ptr %148, i32 0, i32 20
  %150 = load i32, ptr %149, align 8, !tbaa !57
  %151 = or i32 %150, 2
  store i32 %151, ptr %149, align 8, !tbaa !57
  br label %152

152:                                              ; preds = %147, %126
  br label %153

153:                                              ; preds = %152, %100
  %154 = load ptr, ptr %6, align 8, !tbaa !8
  %155 = getelementptr inbounds nuw %struct.FFIOContext, ptr %154, i32 0, i32 1
  store ptr @ffurl_get_short_seek, ptr %155, align 8, !tbaa !65
  %156 = load ptr, ptr %6, align 8, !tbaa !8
  %157 = getelementptr inbounds nuw %struct.AVIOContext, ptr %156, i32 0, i32 0
  store ptr @ff_avio_class, ptr %157, align 8, !tbaa !67
  store i32 0, ptr %3, align 4
  store i32 1, ptr %10, align 4
  br label %158

158:                                              ; preds = %153, %96, %76, %57, %43, %33
  call void @llvm.lifetime.end.p0(i64 4, ptr %9) #10
  call void @llvm.lifetime.end.p0(i64 4, ptr %8) #10
  call void @llvm.lifetime.end.p0(i64 8, ptr %7) #10
  call void @llvm.lifetime.end.p0(i64 8, ptr %6) #10
  %159 = load i32, ptr %3, align 4
  ret i32 %159
}