; Function Attrs: nounwind uwtable
define range(i32 -22, 1) i32 @ffio_fdopen(ptr noundef captures(none) %0, ptr noundef %1) local_unnamed_addr #3 {
  %3 = alloca ptr, align 8
  call void @llvm.lifetime.start.p0(i64 8, ptr nonnull %3) #12
  %4 = getelementptr inbounds nuw i8, ptr %1, i64 36
  %5 = load i32, ptr %4, align 4, !tbaa !44
  %.not = icmp eq i32 %5, 0
  %. = select i1 %.not, i32 32768, i32 %5
  %6 = getelementptr inbounds nuw i8, ptr %1, i64 32
  %7 = load i32, ptr %6, align 8, !tbaa !15
  %8 = and i32 %7, 2
  %.not48 = icmp eq i32 %8, 0
  br i1 %.not48, label %9, label %16

9:                                                ; preds = %2
  %10 = getelementptr inbounds nuw i8, ptr %1, i64 40
  %11 = load i32, ptr %10, align 8, !tbaa !39
  %.not49 = icmp eq i32 %11, 0
  br i1 %.not49, label %16, label %12

12:                                               ; preds = %9
  %13 = icmp sgt i32 %., 1073741823
  br i1 %13, label %67, label %14

14:                                               ; preds = %12
  %15 = shl nsw i32 %., 1
  br label %16

16:                                               ; preds = %14, %9, %2
  %.1 = phi i32 [ %., %2 ], [ %15, %14 ], [ %., %9 ]
  %17 = sext i32 %.1 to i64
  %18 = tail call noalias ptr @av_malloc(i64 noundef %17) #12
  store ptr %18, ptr %3, align 8, !tbaa !45
  %.not50 = icmp eq ptr %18, null
  br i1 %.not50, label %67, label %19

19:                                               ; preds = %16
  %20 = load i32, ptr %6, align 8, !tbaa !15
  %21 = and i32 %20, 2
  %22 = tail call ptr @avio_alloc_context(ptr noundef nonnull %18, i32 noundef %.1, i32 noundef %21, ptr noundef nonnull %1, ptr noundef nonnull @ffurl_read2, ptr noundef nonnull @ffurl_write2, ptr noundef nonnull @ffurl_seek2) #12
  store ptr %22, ptr %0, align 8, !tbaa !46
  %.not51 = icmp eq ptr %22, null
  br i1 %.not51, label %23, label %24

23:                                               ; preds = %19
  call void @av_freep(ptr noundef nonnull %3) #12
  br label %67

24:                                               ; preds = %19
  %25 = getelementptr inbounds nuw i8, ptr %1, i64 72
  %26 = load ptr, ptr %25, align 8, !tbaa !29
  %.not52 = icmp eq ptr %26, null
  br i1 %.not52, label %33, label %27

27:                                               ; preds = %24
  %28 = tail call noalias ptr @av_strdup(ptr noundef nonnull %26) #12
  %29 = getelementptr inbounds nuw i8, ptr %22, i64 152
  store ptr %28, ptr %29, align 8, !tbaa !48
  %.not53 = icmp eq ptr %28, null
  br i1 %.not53, label %30, label %33

30:                                               ; preds = %27
  %31 = load ptr, ptr %0, align 8, !tbaa !46
  %32 = tail call i32 @avio_close(ptr noundef %31)
  store ptr null, ptr %0, align 8, !tbaa !46
  br label %67

33:                                               ; preds = %27, %24
  %34 = getelementptr inbounds nuw i8, ptr %1, i64 80
  %35 = load ptr, ptr %34, align 8, !tbaa !32
  %.not54 = icmp eq ptr %35, null
  br i1 %.not54, label %42, label %36

36:                                               ; preds = %33
  %37 = tail call noalias ptr @av_strdup(ptr noundef nonnull %35) #12
  %38 = getelementptr inbounds nuw i8, ptr %22, i64 160
  store ptr %37, ptr %38, align 8, !tbaa !49
  %.not55 = icmp eq ptr %37, null
  br i1 %.not55, label %39, label %42

39:                                               ; preds = %36
  %40 = load ptr, ptr %0, align 8, !tbaa !46
  %41 = tail call i32 @avio_close(ptr noundef %40)
  store ptr null, ptr %0, align 8, !tbaa !46
  br label %67

42:                                               ; preds = %36, %33
  %43 = load i32, ptr %6, align 8, !tbaa !15
  %44 = and i32 %43, 32768
  %45 = getelementptr inbounds nuw i8, ptr %22, i64 148
  store i32 %44, ptr %45, align 4, !tbaa !50
  %46 = getelementptr inbounds nuw i8, ptr %1, i64 40
  %47 = load i32, ptr %46, align 8, !tbaa !39
  %.not56 = icmp eq i32 %47, 0
  %48 = zext i1 %.not56 to i32
  %49 = getelementptr inbounds nuw i8, ptr %22, i64 144
  store i32 %48, ptr %49, align 8, !tbaa !51
  %50 = getelementptr inbounds nuw i8, ptr %22, i64 92
  store i32 %5, ptr %50, align 4, !tbaa !52
  %51 = getelementptr inbounds nuw i8, ptr %1, i64 88
  %52 = load i32, ptr %51, align 8, !tbaa !53
  %53 = getelementptr inbounds nuw i8, ptr %22, i64 96
  store i32 %52, ptr %53, align 8, !tbaa !54
  %54 = getelementptr inbounds nuw i8, ptr %1, i64 8
  %55 = load ptr, ptr %54, align 8, !tbaa !21
  %.not57 = icmp eq ptr %55, null
  br i1 %.not57, label %65, label %56

56:                                               ; preds = %42
  %57 = getelementptr inbounds nuw i8, ptr %55, i64 72
  %58 = load ptr, ptr %57, align 8, !tbaa !55
  %59 = getelementptr inbounds nuw i8, ptr %22, i64 128
  store ptr %58, ptr %59, align 8, !tbaa !56
  %60 = getelementptr inbounds nuw i8, ptr %55, i64 80
  %61 = load ptr, ptr %60, align 8, !tbaa !57
  %62 = getelementptr inbounds nuw i8, ptr %22, i64 136
  store ptr %61, ptr %62, align 8, !tbaa !58
  %.not58 = icmp eq ptr %61, null
  br i1 %.not58, label %65, label %63

63:                                               ; preds = %56
  %64 = or disjoint i32 %48, 2
  store i32 %64, ptr %49, align 8, !tbaa !51
  br label %65

65:                                               ; preds = %56, %63, %42
  %66 = getelementptr inbounds nuw i8, ptr %22, i64 208
  store ptr @ffurl_get_short_seek, ptr %66, align 8, !tbaa !59
  store ptr @ff_avio_class, ptr %22, align 8, !tbaa !61
  br label %67

67:                                               ; preds = %16, %12, %65, %39, %30, %23
  %.0 = phi i32 [ 0, %65 ], [ -12, %39 ], [ -12, %30 ], [ -12, %23 ], [ -22, %12 ], [ -12, %16 ]
  call void @llvm.lifetime.end.p0(i64 8, ptr nonnull %3) #12
  ret i32 %.0
}